target datalayout = "e-m:e-p270:32:32-p271:32:32-p272:64:64-i64:64-i128:128-f80:128-n8:16:32:64-S128"
target triple = "x86_64-pc-linux-gnu"

%"class.cv::Scalar_" = type { %"class.cv::Vec" }
%"class.cv::Vec" = type { %"class.cv::Matx" }
%"class.cv::Matx" = type { [4 x double] }
%"class.cv::RNG" = type { i64 }

; Function Attrs: inlinehint mustprogress nounwind uwtable
define linkonce_odr hidden noundef i32 @_ZN2cv3RNG4nextEv(ptr noundef nonnull align 8 dereferenceable(8) %0) #4 comdat align 2 {
  %2 = alloca ptr, align 8
  store ptr %0, ptr %2, align 8, !tbaa !13
  %3 = load ptr, ptr %2, align 8
  %4 = getelementptr inbounds nuw %"class.cv::RNG", ptr %3, i32 0, i32 0
  %5 = load i64, ptr %4, align 8, !tbaa !181
  %6 = trunc i64 %5 to i32
  %7 = zext i32 %6 to i64
  %8 = mul i64 %7, 4164903690
  %9 = getelementptr inbounds nuw %"class.cv::RNG", ptr %3, i32 0, i32 0
  %10 = load i64, ptr %9, align 8, !tbaa !181
  %11 = lshr i64 %10, 32
  %12 = trunc i64 %11 to i32
  %13 = zext i32 %12 to i64
  %14 = add i64 %8, %13
  %15 = getelementptr inbounds nuw %"class.cv::RNG", ptr %3, i32 0, i32 0
  store i64 %14, ptr %15, align 8, !tbaa !181
  %16 = getelementptr inbounds nuw %"class.cv::RNG", ptr %3, i32 0, i32 0
  %17 = load i64, ptr %16, align 8, !tbaa !181
  %18 = trunc i64 %17 to i32
  ret i32 %18
}

; Function Attrs: inlinehint mustprogress nounwind uwtable
define linkonce_odr hidden void @_ZN2cv4MatxIdLi4ELi1EEC2Ev(ptr noundef nonnull align 8 dereferenceable(32) %0) unnamed_addr #4 comdat align 2 {
  %2 = alloca ptr, align 8
  %3 = alloca i32, align 4
  store ptr %0, ptr %2, align 8, !tbaa !329
  %4 = load ptr, ptr %2, align 8
  call void @llvm.lifetime.start.p0(i64 4, ptr %3) #3
  store i32 0, ptr %3, align 4, !tbaa !8
  br label %5

5:                                                ; preds = %14, %1
  %6 = load i32, ptr %3, align 4, !tbaa !8
  %7 = icmp slt i32 %6, 4
  br i1 %7, label %9, label %8

8:                                                ; preds = %5
  call void @llvm.lifetime.end.p0(i64 4, ptr %3) #3
  br label %17

9:                                                ; preds = %5
  %10 = getelementptr inbounds nuw %"class.cv::Matx", ptr %4, i32 0, i32 0
  %11 = load i32, ptr %3, align 4, !tbaa !8
  %12 = sext i32 %11 to i64
  %13 = getelementptr inbounds [4 x double], ptr %10, i64 0, i64 %12
  store double 0.000000e+00, ptr %13, align 8, !tbaa !17
  br label %14

14:                                               ; preds = %9
  %15 = load i32, ptr %3, align 4, !tbaa !8
  %16 = add nsw i32 %15, 1
  store i32 %16, ptr %3, align 4, !tbaa !8
  br label %5, !llvm.loop !331

17:                                               ; preds = %8
  ret void
}

; Function Attrs: inlinehint mustprogress nounwind uwtable
define linkonce_odr hidden noundef double @_ZN2cv3RNGcvdEv(ptr noundef nonnull align 8 dereferenceable(8) %0) #4 comdat align 2 {
  %2 = alloca ptr, align 8
  %3 = alloca i32, align 4
  store ptr %0, ptr %2, align 8, !tbaa !13
  %4 = load ptr, ptr %2, align 8
  call void @llvm.lifetime.start.p0(i64 4, ptr %3) #3
  %5 = call noundef i32 @_ZN2cv3RNG4nextEv(ptr noundef nonnull align 8 dereferenceable(8) %4)
  store i32 %5, ptr %3, align 4, !tbaa !8
  %6 = load i32, ptr %3, align 4, !tbaa !8
  %7 = zext i32 %6 to i64
  %8 = shl i64 %7, 32
  %9 = call noundef i32 @_ZN2cv3RNG4nextEv(ptr noundef nonnull align 8 dereferenceable(8) %4)
  %10 = zext i32 %9 to i64
  %11 = or i64 %8, %10
  %12 = uitofp i64 %11 to double
  %13 = fmul double %12, 0x3BF0000000000000
  call void @llvm.lifetime.end.p0(i64 4, ptr %3) #3
  ret double %13
}

; Function Attrs: inlinehint mustprogress uwtable
define linkonce_odr hidden void @_ZN2cv3VecIdLi4EEC2Ev(ptr noundef nonnull align 8 dereferenceable(32) %0) unnamed_addr #7 comdat align 2 {
  %2 = alloca ptr, align 8
  store ptr %0, ptr %2, align 8, !tbaa !327
  %3 = load ptr, ptr %2, align 8
  call void @_ZN2cv4MatxIdLi4ELi1EEC2Ev(ptr noundef nonnull align 8 dereferenceable(32) %3)
  ret void
}

; Function Attrs: inlinehint mustprogress uwtable
define linkonce_odr hidden noundef double @_ZN2cv3RNG7uniformEdd(ptr noundef nonnull align 8 dereferenceable(8) %0, double noundef %1, double noundef %2) #7 comdat align 2 {
  %4 = alloca ptr, align 8
  %5 = alloca double, align 8
  %6 = alloca double, align 8
  store ptr %0, ptr %4, align 8, !tbaa !13
  store double %1, ptr %5, align 8, !tbaa !17
  store double %2, ptr %6, align 8, !tbaa !17
  %7 = load ptr, ptr %4, align 8
  %8 = call noundef double @_ZN2cv3RNGcvdEv(ptr noundef nonnull align 8 dereferenceable(8) %7)
  %9 = load double, ptr %6, align 8, !tbaa !17
  %10 = load double, ptr %5, align 8, !tbaa !17
  %11 = fsub double %9, %10
  %12 = load double, ptr %5, align 8, !tbaa !17
  %13 = call double @llvm.fmuladd.f64(double %8, double %11, double %12)
  ret double %13
}

; Function Attrs: mustprogress uwtable
define linkonce_odr hidden noundef nonnull align 8 dereferenceable(8) ptr @_ZN6cvtest2TS7get_rngEv(ptr noundef nonnull align 8 dereferenceable(280) %0) #6 comdat align 2 {
  %2 = alloca ptr, align 8
  store ptr %0, ptr %2, align 8, !tbaa !15
  %3 = call noundef nonnull align 8 dereferenceable(8) ptr @_ZN2cv6theRNGEv()
  ret ptr %3
}

; Function Attrs: inlinehint mustprogress uwtable
define linkonce_odr hidden void @_ZN2cv7Scalar_IdEC2Edddd(ptr noundef nonnull align 8 dereferenceable(32) %0, double noundef %1, double noundef %2, double noundef %3, double noundef %4) unnamed_addr #7 comdat align 2 {
  %6 = alloca ptr, align 8
  %7 = alloca double, align 8
  %8 = alloca double, align 8
  %9 = alloca double, align 8
  %10 = alloca double, align 8
  store ptr %0, ptr %6, align 8, !tbaa !19
  store double %1, ptr %7, align 8, !tbaa !17
  store double %2, ptr %8, align 8, !tbaa !17
  store double %3, ptr %9, align 8, !tbaa !17
  store double %4, ptr %10, align 8, !tbaa !17
  %11 = load ptr, ptr %6, align 8
  call void @_ZN2cv3VecIdLi4EEC2Ev(ptr noundef nonnull align 8 dereferenceable(32) %11)
  %12 = load double, ptr %7, align 8, !tbaa !17
  %13 = getelementptr inbounds nuw %"class.cv::Matx", ptr %11, i32 0, i32 0
  %14 = getelementptr inbounds [4 x double], ptr %13, i64 0, i64 0
  store double %12, ptr %14, align 8, !tbaa !17
  %15 = load double, ptr %8, align 8, !tbaa !17
  %16 = getelementptr inbounds nuw %"class.cv::Matx", ptr %11, i32 0, i32 0
  %17 = getelementptr inbounds [4 x double], ptr %16, i64 0, i64 1
  store double %15, ptr %17, align 8, !tbaa !17
  %18 = load double, ptr %9, align 8, !tbaa !17
  %19 = getelementptr inbounds nuw %"class.cv::Matx", ptr %11, i32 0, i32 0
  %20 = getelementptr inbounds [4 x double], ptr %19, i64 0, i64 2
  store double %18, ptr %20, align 8, !tbaa !17
  %21 = load double, ptr %10, align 8, !tbaa !17
  %22 = getelementptr inbounds nuw %"class.cv::Matx", ptr %11, i32 0, i32 0
  %23 = getelementptr inbounds [4 x double], ptr %22, i64 0, i64 3
  store double %21, ptr %23, align 8, !tbaa !17
  ret void
}

; Function Attrs: mustprogress uwtable
define hidden noundef double @_ZN6cvtest12randomDoubleEdd(double noundef %0, double noundef %1) #6 {
  %3 = alloca double, align 8
  %4 = alloca double, align 8
  %5 = alloca ptr, align 8
  store double %0, ptr %3, align 8, !tbaa !17
  store double %1, ptr %4, align 8, !tbaa !17
  call void @llvm.lifetime.start.p0(i64 8, ptr %5) #3
  %6 = call noundef ptr @_ZN6cvtest2TS3ptrEv()
  %7 = call noundef nonnull align 8 dereferenceable(8) ptr @_ZN6cvtest2TS7get_rngEv(ptr noundef nonnull align 8 dereferenceable(280) %6)
  store ptr %7, ptr %5, align 8, !tbaa !13
  %8 = load ptr, ptr %5, align 8, !tbaa !13
  %9 = load double, ptr %3, align 8, !tbaa !17
  %10 = load double, ptr %4, align 8, !tbaa !17
  %11 = call noundef double @_ZN2cv3RNG7uniformEdd(ptr noundef nonnull align 8 dereferenceable(8) %8, double noundef %9, double noundef %10)
  call void @llvm.lifetime.end.p0(i64 8, ptr %5) #3
  ret double %11
}

; Function Attrs: mustprogress uwtable
define hidden void @_ZN6cvtest12randomScalarEdd(ptr dead_on_unwind noalias writable sret(%"class.cv::Scalar_") align 8 %0, double noundef %1, double noundef %2) #6 {
  %4 = alloca ptr, align 8
  %5 = alloca double, align 8
  %6 = alloca double, align 8
  store ptr %0, ptr %4, align 8
  store double %1, ptr %5, align 8, !tbaa !17
  store double %2, ptr %6, align 8, !tbaa !17
  %7 = load double, ptr %5, align 8, !tbaa !17
  %8 = load double, ptr %6, align 8, !tbaa !17
  %9 = call noundef double @_ZN6cvtest12randomDoubleEdd(double noundef %7, double noundef %8)
  %10 = load double, ptr %5, align 8, !tbaa !17
  %11 = load double, ptr %6, align 8, !tbaa !17
  %12 = call noundef double @_ZN6cvtest12randomDoubleEdd(double noundef %10, double noundef %11)
  %13 = load double, ptr %5, align 8, !tbaa !17
  %14 = load double, ptr %6, align 8, !tbaa !17
  %15 = call noundef double @_ZN6cvtest12randomDoubleEdd(double noundef %13, double noundef %14)
  %16 = load double, ptr %5, align 8, !tbaa !17
  %17 = load double, ptr %6, align 8, !tbaa !17
  %18 = call noundef double @_ZN6cvtest12randomDoubleEdd(double noundef %16, double noundef %17)
  call void @_ZN2cv7Scalar_IdEC2Edddd(ptr noundef nonnull align 8 dereferenceable(32) %0, double noundef %9, double noundef %12, double noundef %15, double noundef %18)
  ret void
}