; Function Attrs: mustprogress uwtable
define hidden void @_ZN6cvtest12randomScalarEdd(ptr dead_on_unwind noalias writable writeonly sret(%"class.cv::Scalar_") align 8 captures(none) initializes((0, 32)) %0, double noundef %1, double noundef %2) local_unnamed_addr #4 {
  %4 = tail call noundef ptr @_ZN6cvtest2TS3ptrEv()
  %5 = tail call noundef nonnull align 8 dereferenceable(8) ptr @_ZN2cv6theRNGEv()
  %6 = load i64, ptr %5, align 8, !tbaa !3
  %7 = and i64 %6, 4294967295
  %8 = mul nuw i64 %7, 4164903690
  %9 = lshr i64 %6, 32
  %10 = add nuw i64 %8, %9
  %11 = shl i64 %10, 32
  %12 = and i64 %10, 4294967295
  %13 = mul nuw i64 %12, 4164903690
  %14 = lshr i64 %10, 32
  %15 = add nuw i64 %13, %14
  store i64 %15, ptr %5, align 8, !tbaa !3
  %16 = and i64 %15, 4294967295
  %17 = or disjoint i64 %16, %11
  %18 = uitofp i64 %17 to double
  %19 = fmul double %18, 0x3BF0000000000000
  %20 = fsub double %2, %1
  %21 = tail call noundef double @llvm.fmuladd.f64(double %19, double %20, double %1)
  %22 = tail call noundef ptr @_ZN6cvtest2TS3ptrEv()
  %23 = tail call noundef nonnull align 8 dereferenceable(8) ptr @_ZN2cv6theRNGEv()
  %24 = load i64, ptr %23, align 8, !tbaa !3
  %25 = and i64 %24, 4294967295
  %26 = mul nuw i64 %25, 4164903690
  %27 = lshr i64 %24, 32
  %28 = add nuw i64 %26, %27
  %29 = shl i64 %28, 32
  %30 = and i64 %28, 4294967295
  %31 = mul nuw i64 %30, 4164903690
  %32 = lshr i64 %28, 32
  %33 = add nuw i64 %31, %32
  store i64 %33, ptr %23, align 8, !tbaa !3
  %34 = and i64 %33, 4294967295
  %35 = or disjoint i64 %34, %29
  %36 = uitofp i64 %35 to double
  %37 = fmul double %36, 0x3BF0000000000000
  %38 = tail call noundef double @llvm.fmuladd.f64(double %37, double %20, double %1)
  %39 = tail call noundef ptr @_ZN6cvtest2TS3ptrEv()
  %40 = tail call noundef nonnull align 8 dereferenceable(8) ptr @_ZN2cv6theRNGEv()
  %41 = load i64, ptr %40, align 8, !tbaa !3
  %42 = and i64 %41, 4294967295
  %43 = mul nuw i64 %42, 4164903690
  %44 = lshr i64 %41, 32
  %45 = add nuw i64 %43, %44
  %46 = shl i64 %45, 32
  %47 = and i64 %45, 4294967295
  %48 = mul nuw i64 %47, 4164903690
  %49 = lshr i64 %45, 32
  %50 = add nuw i64 %48, %49
  store i64 %50, ptr %40, align 8, !tbaa !3
  %51 = and i64 %50, 4294967295
  %52 = or disjoint i64 %51, %46
  %53 = uitofp i64 %52 to double
  %54 = fmul double %53, 0x3BF0000000000000
  %55 = tail call noundef double @llvm.fmuladd.f64(double %54, double %20, double %1)
  %56 = tail call noundef ptr @_ZN6cvtest2TS3ptrEv()
  %57 = tail call noundef nonnull align 8 dereferenceable(8) ptr @_ZN2cv6theRNGEv()
  %58 = load i64, ptr %57, align 8, !tbaa !3
  %59 = and i64 %58, 4294967295
  %60 = mul nuw i64 %59, 4164903690
  %61 = lshr i64 %58, 32
  %62 = add nuw i64 %60, %61
  %63 = shl i64 %62, 32
  %64 = and i64 %62, 4294967295
  %65 = mul nuw i64 %64, 4164903690
  %66 = lshr i64 %62, 32
  %67 = add nuw i64 %65, %66
  store i64 %67, ptr %57, align 8, !tbaa !3
  %68 = and i64 %67, 4294967295
  %69 = or disjoint i64 %68, %63
  %70 = uitofp i64 %69 to double
  %71 = fmul double %70, 0x3BF0000000000000
  %72 = tail call noundef double @llvm.fmuladd.f64(double %71, double %20, double %1)
  store double %21, ptr %0, align 8, !tbaa !8
  %73 = getelementptr inbounds nuw i8, ptr %0, i64 8
  store double %38, ptr %73, align 8, !tbaa !8
  %74 = getelementptr inbounds nuw i8, ptr %0, i64 16
  store double %55, ptr %74, align 8, !tbaa !8
  %75 = getelementptr inbounds nuw i8, ptr %0, i64 24
  store double %72, ptr %75, align 8, !tbaa !8
  ret void
}